target datalayout = "e-m:e-p270:32:32-p271:32:32-p272:64:64-i64:64-i128:128-f80:128-n8:16:32:64-S128"
target triple = "x86_64-pc-linux-gnu"

%"class.ade::ExecutionEngine" = type { %"class.std::vector", %"struct.ade::ExecutionEngine::CallbackList", %"struct.ade::ExecutionEngine::CallbackList", %"struct.ade::ExecutionEngine::LazyPasses", %"class.std::unordered_set", %"class.ade::PassManager" }
%"class.std::vector" = type { %"struct.std::_Vector_base" }
%"struct.std::_Vector_base" = type { %"struct.std::_Vector_base<std::unique_ptr<ade::ExecutionBackend>, std::allocator<std::unique_ptr<ade::ExecutionBackend>>>::_Vector_impl" }
%"struct.std::_Vector_base<std::unique_ptr<ade::ExecutionBackend>, std::allocator<std::unique_ptr<ade::ExecutionBackend>>>::_Vector_impl" = type { %"struct.std::_Vector_base<std::unique_ptr<ade::ExecutionBackend>, std::allocator<std::unique_ptr<ade::ExecutionBackend>>>::_Vector_impl_data" }
%"struct.std::_Vector_base<std::unique_ptr<ade::ExecutionBackend>, std::allocator<std::unique_ptr<ade::ExecutionBackend>>>::_Vector_impl_data" = type { ptr, ptr, ptr }
%"struct.ade::ExecutionEngine::CallbackList" = type { %"class.std::vector.0" }
%"class.std::vector.0" = type { %"struct.std::_Vector_base.1" }
%"struct.std::_Vector_base.1" = type { %"struct.std::_Vector_base<std::function<void (const ade::ExecutionEngine::PassDesc &, const ade::passes::PassContext &)>, std::allocator<std::function<void (const ade::ExecutionEngine::PassDesc &, const ade::passes::PassContext &)>>>::_Vector_impl" }
%"struct.std::_Vector_base<std::function<void (const ade::ExecutionEngine::PassDesc &, const ade::passes::PassContext &)>, std::allocator<std::function<void (const ade::ExecutionEngine::PassDesc &, const ade::passes::PassContext &)>>>::_Vector_impl" = type { %"struct.std::_Vector_base<std::function<void (const ade::ExecutionEngine::PassDesc &, const ade::passes::PassContext &)>, std::allocator<std::function<void (const ade::ExecutionEngine::PassDesc &, const ade::passes::PassContext &)>>>::_Vector_impl_data" }
%"struct.std::_Vector_base<std::function<void (const ade::ExecutionEngine::PassDesc &, const ade::passes::PassContext &)>, std::allocator<std::function<void (const ade::ExecutionEngine::PassDesc &, const ade::passes::PassContext &)>>>::_Vector_impl_data" = type { ptr, ptr, ptr }
%"struct.ade::ExecutionEngine::LazyPasses" = type { ptr, %"class.std::unordered_map" }
%"class.std::unordered_map" = type { %"class.std::_Hashtable" }
%"class.std::_Hashtable" = type { ptr, i64, %"struct.std::__detail::_Hash_node_base", i64, %"struct.std::__detail::_Prime_rehash_policy", ptr }
%"struct.std::__detail::_Hash_node_base" = type { ptr }
%"struct.std::__detail::_Prime_rehash_policy" = type { float, i64 }
%"class.std::unordered_set" = type { %"class.std::_Hashtable.10" }
%"class.std::_Hashtable.10" = type { ptr, i64, %"struct.std::__detail::_Hash_node_base", i64, %"struct.std::__detail::_Prime_rehash_policy", ptr }
%"class.ade::PassManager" = type { %"class.std::__cxx11::list", %"class.std::unordered_map.26" }
%"class.std::__cxx11::list" = type { %"class.std::__cxx11::_List_base" }
%"class.std::__cxx11::_List_base" = type { %"struct.std::__cxx11::_List_base<std::pair<std::__cxx11::basic_string<char>, ade::PassList<ade::passes::PassContext>>, std::allocator<std::pair<std::__cxx11::basic_string<char>, ade::PassList<ade::passes::PassContext>>>>::_List_impl" }
%"struct.std::__cxx11::_List_base<std::pair<std::__cxx11::basic_string<char>, ade::PassList<ade::passes::PassContext>>, std::allocator<std::pair<std::__cxx11::basic_string<char>, ade::PassList<ade::passes::PassContext>>>>::_List_impl" = type { %"struct.std::__detail::_List_node_header" }
%"struct.std::__detail::_List_node_header" = type { %"struct.std::__detail::_List_node_base", i64 }
%"struct.std::__detail::_List_node_base" = type { ptr, ptr }
%"class.std::unordered_map.26" = type { %"class.std::_Hashtable.27" }
%"class.std::_Hashtable.27" = type { ptr, i64, %"struct.std::__detail::_Hash_node_base", i64, %"struct.std::__detail::_Prime_rehash_policy", ptr }
%"class.ade::ExecutionEngineSetupContext" = type { ptr }
%"struct.std::_List_const_iterator" = type { ptr }
%"struct.ade::util::Range::MapRange" = type <{ %"struct.ade::util::Range::IterRange", [8 x i8] }>
%"struct.ade::util::Range::IterRange" = type { %"struct.std::_List_const_iterator", %"struct.std::_List_const_iterator" }
%"struct.ade::ExecutionEngine::PassMapper" = type { i8 }

; Function Attrs: mustprogress nounwind uwtable
define linkonce_odr hidden void @_ZNSt20_List_const_iteratorISt4pairINSt7__cxx1112basic_stringIcSt11char_traitsIcESaIcEEEN3ade8PassListINS7_6passes11PassContextEEEEEC2EPKNSt8__detail15_List_node_baseE(ptr noundef nonnull align 8 dereferenceable(8) %0, ptr noundef %1) unnamed_addr #1 comdat align 2 {
  %3 = alloca ptr, align 8
  %4 = alloca ptr, align 8
  store ptr %0, ptr %3, align 8, !tbaa !555
  store ptr %1, ptr %4, align 8, !tbaa !94
  %5 = load ptr, ptr %3, align 8
  %6 = getelementptr inbounds nuw %"struct.std::_List_const_iterator", ptr %5, i32 0, i32 0
  %7 = load ptr, ptr %4, align 8, !tbaa !94
  store ptr %7, ptr %6, align 8, !tbaa !557
  ret void
}

; Function Attrs: mustprogress nounwind uwtable
define linkonce_odr hidden ptr @_ZNKSt7__cxx114listISt4pairINS_12basic_stringIcSt11char_traitsIcESaIcEEEN3ade8PassListINS7_6passes11PassContextEEEESaISC_EE3endEv(ptr noundef nonnull align 8 dereferenceable(24) %0) #1 comdat align 2 {
  %2 = alloca %"struct.std::_List_const_iterator", align 8
  %3 = alloca ptr, align 8
  store ptr %0, ptr %3, align 8, !tbaa !68
  %4 = load ptr, ptr %3, align 8
  %5 = getelementptr inbounds nuw %"class.std::__cxx11::_List_base", ptr %4, i32 0, i32 0
  %6 = getelementptr inbounds nuw %"struct.std::__cxx11::_List_base<std::pair<std::__cxx11::basic_string<char>, ade::PassList<ade::passes::PassContext>>, std::allocator<std::pair<std::__cxx11::basic_string<char>, ade::PassList<ade::passes::PassContext>>>>::_List_impl", ptr %5, i32 0, i32 0
  call void @_ZNSt20_List_const_iteratorISt4pairINSt7__cxx1112basic_stringIcSt11char_traitsIcESaIcEEEN3ade8PassListINS7_6passes11PassContextEEEEEC2EPKNSt8__detail15_List_node_baseE(ptr noundef nonnull align 8 dereferenceable(8) %2, ptr noundef %6) #16
  %7 = getelementptr inbounds nuw %"struct.std::_List_const_iterator", ptr %2, i32 0, i32 0
  %8 = load ptr, ptr %7, align 8
  ret ptr %8
}

; Function Attrs: mustprogress nounwind uwtable
define linkonce_odr hidden ptr @_ZNKSt7__cxx114listISt4pairINS_12basic_stringIcSt11char_traitsIcESaIcEEEN3ade8PassListINS7_6passes11PassContextEEEESaISC_EE5beginEv(ptr noundef nonnull align 8 dereferenceable(24) %0) #1 comdat align 2 {
  %2 = alloca %"struct.std::_List_const_iterator", align 8
  %3 = alloca ptr, align 8
  store ptr %0, ptr %3, align 8, !tbaa !68
  %4 = load ptr, ptr %3, align 8
  %5 = getelementptr inbounds nuw %"class.std::__cxx11::_List_base", ptr %4, i32 0, i32 0
  %6 = getelementptr inbounds nuw %"struct.std::__cxx11::_List_base<std::pair<std::__cxx11::basic_string<char>, ade::PassList<ade::passes::PassContext>>, std::allocator<std::pair<std::__cxx11::basic_string<char>, ade::PassList<ade::passes::PassContext>>>>::_List_impl", ptr %5, i32 0, i32 0
  %7 = getelementptr inbounds nuw %"struct.std::__detail::_List_node_base", ptr %6, i32 0, i32 0
  %8 = load ptr, ptr %7, align 8, !tbaa !241
  call void @_ZNSt20_List_const_iteratorISt4pairINSt7__cxx1112basic_stringIcSt11char_traitsIcESaIcEEEN3ade8PassListINS7_6passes11PassContextEEEEEC2EPKNSt8__detail15_List_node_baseE(ptr noundef nonnull align 8 dereferenceable(8) %2, ptr noundef %8) #16
  %9 = getelementptr inbounds nuw %"struct.std::_List_const_iterator", ptr %2, i32 0, i32 0
  %10 = load ptr, ptr %9, align 8
  ret ptr %10
}

; Function Attrs: inlinehint mustprogress nounwind uwtable
define linkonce_odr hidden ptr @_ZSt3endINSt7__cxx114listISt4pairINS0_12basic_stringIcSt11char_traitsIcESaIcEEEN3ade8PassListINS8_6passes11PassContextEEEESaISD_EEEEDTcldtfp_3endEERKT_(ptr noundef nonnull align 8 dereferenceable(24) %0) #2 comdat {
  %2 = alloca %"struct.std::_List_const_iterator", align 8
  %3 = alloca ptr, align 8
  store ptr %0, ptr %3, align 8, !tbaa !68
  %4 = load ptr, ptr %3, align 8, !tbaa !68
  %5 = call ptr @_ZNKSt7__cxx114listISt4pairINS_12basic_stringIcSt11char_traitsIcESaIcEEEN3ade8PassListINS7_6passes11PassContextEEEESaISC_EE3endEv(ptr noundef nonnull align 8 dereferenceable(24) %4) #16
  %6 = getelementptr inbounds nuw %"struct.std::_List_const_iterator", ptr %2, i32 0, i32 0
  store ptr %5, ptr %6, align 8
  %7 = getelementptr inbounds nuw %"struct.std::_List_const_iterator", ptr %2, i32 0, i32 0
  %8 = load ptr, ptr %7, align 8
  ret ptr %8
}

; Function Attrs: inlinehint mustprogress nounwind uwtable
define linkonce_odr hidden ptr @_ZSt5beginINSt7__cxx114listISt4pairINS0_12basic_stringIcSt11char_traitsIcESaIcEEEN3ade8PassListINS8_6passes11PassContextEEEESaISD_EEEEDTcldtfp_5beginEERKT_(ptr noundef nonnull align 8 dereferenceable(24) %0) #2 comdat {
  %2 = alloca %"struct.std::_List_const_iterator", align 8
  %3 = alloca ptr, align 8
  store ptr %0, ptr %3, align 8, !tbaa !68
  %4 = load ptr, ptr %3, align 8, !tbaa !68
  %5 = call ptr @_ZNKSt7__cxx114listISt4pairINS_12basic_stringIcSt11char_traitsIcESaIcEEEN3ade8PassListINS7_6passes11PassContextEEEESaISC_EE5beginEv(ptr noundef nonnull align 8 dereferenceable(24) %4) #16
  %6 = getelementptr inbounds nuw %"struct.std::_List_const_iterator", ptr %2, i32 0, i32 0
  store ptr %5, ptr %6, align 8
  %7 = getelementptr inbounds nuw %"struct.std::_List_const_iterator", ptr %2, i32 0, i32 0
  %8 = load ptr, ptr %7, align 8
  ret ptr %8
}

; Function Attrs: mustprogress nounwind uwtable
define linkonce_odr hidden void @_ZN3ade4util5Range8MapRangeINS1_9IterRangeISt20_List_const_iteratorISt4pairINSt7__cxx1112basic_stringIcSt11char_traitsIcESaIcEEENS_8PassListINS_6passes11PassContextEEEEESH_EENS_15ExecutionEngine10PassMapperEEC2ISI_SK_EEOT_OT0_(ptr noundef nonnull align 8 dereferenceable(17) %0, ptr noundef nonnull align 8 dereferenceable(16) %1, ptr noundef nonnull align 1 dereferenceable(1) %2) unnamed_addr #1 comdat align 2 {
  %4 = alloca ptr, align 8
  %5 = alloca ptr, align 8
  %6 = alloca ptr, align 8
  store ptr %0, ptr %4, align 8, !tbaa !560
  store ptr %1, ptr %5, align 8, !tbaa !96
  store ptr %2, ptr %6, align 8, !tbaa !562
  %7 = load ptr, ptr %4, align 8
  %8 = getelementptr inbounds nuw %"struct.ade::util::Range::MapRange", ptr %7, i32 0, i32 0
  %9 = load ptr, ptr %5, align 8, !tbaa !96
  call void @llvm.memcpy.p0.p0.i64(ptr align 8 %8, ptr align 8 %9, i64 16, i1 false), !tbaa.struct !564
  ret void
}

; Function Attrs: inlinehint mustprogress uwtable
define linkonce_odr hidden { ptr, ptr } @_ZN3ade4util5Range7toRangeIRKNSt7__cxx114listISt4pairINS3_12basic_stringIcSt11char_traitsIcESaIcEEENS_8PassListINS_6passes11PassContextEEEESaISF_EEEEENS1_9IterRangeIDTclsr3stdE5beginfp_EEDTclsr3stdE3endfp_EEEEOT_(ptr noundef nonnull align 8 dereferenceable(24) %0) #5 comdat {
  %2 = alloca %"struct.ade::util::Range::IterRange", align 8
  %3 = alloca ptr, align 8
  store ptr %0, ptr %3, align 8, !tbaa !68
  %4 = load ptr, ptr %3, align 8, !tbaa !68
  %5 = call ptr @_ZSt5beginINSt7__cxx114listISt4pairINS0_12basic_stringIcSt11char_traitsIcESaIcEEEN3ade8PassListINS8_6passes11PassContextEEEESaISD_EEEEDTcldtfp_5beginEERKT_(ptr noundef nonnull align 8 dereferenceable(24) %4)
  %6 = getelementptr inbounds nuw %"struct.std::_List_const_iterator", ptr %2, i32 0, i32 0
  store ptr %5, ptr %6, align 8
  %7 = getelementptr inbounds nuw %"struct.ade::util::Range::IterRange", ptr %2, i32 0, i32 1
  %8 = load ptr, ptr %3, align 8, !tbaa !68
  %9 = call ptr @_ZSt3endINSt7__cxx114listISt4pairINS0_12basic_stringIcSt11char_traitsIcESaIcEEEN3ade8PassListINS8_6passes11PassContextEEEESaISD_EEEEDTcldtfp_3endEERKT_(ptr noundef nonnull align 8 dereferenceable(24) %8)
  %10 = getelementptr inbounds nuw %"struct.std::_List_const_iterator", ptr %7, i32 0, i32 0
  store ptr %9, ptr %10, align 8
  %11 = load { ptr, ptr }, ptr %2, align 8
  ret { ptr, ptr } %11
}

; Function Attrs: mustprogress uwtable
define linkonce_odr hidden void @_ZN3ade4util5Range3mapINS_15ExecutionEngine10PassMapperENS1_9IterRangeISt20_List_const_iteratorISt4pairINSt7__cxx1112basic_stringIcSt11char_traitsIcESaIcEEENS_8PassListINS_6passes11PassContextEEEEESJ_EEEENS1_8MapRangeIT0_T_EEOSM_(ptr dead_on_unwind noalias writable sret(%"struct.ade::util::Range::MapRange") align 8 %0, ptr noundef nonnull align 8 dereferenceable(16) %1) #0 comdat {
  %3 = alloca ptr, align 8
  %4 = alloca %"struct.ade::ExecutionEngine::PassMapper", align 1
  store ptr %1, ptr %3, align 8, !tbaa !96
  %5 = load ptr, ptr %3, align 8, !tbaa !96
  call void @llvm.lifetime.start.p0(i64 1, ptr %4) #16
  call void @_ZN3ade4util5Range8MapRangeINS1_9IterRangeISt20_List_const_iteratorISt4pairINSt7__cxx1112basic_stringIcSt11char_traitsIcESaIcEEENS_8PassListINS_6passes11PassContextEEEEESH_EENS_15ExecutionEngine10PassMapperEEC2ISI_SK_EEOT_OT0_(ptr noundef nonnull align 8 dereferenceable(17) %0, ptr noundef nonnull align 8 dereferenceable(16) %5, ptr noundef nonnull align 1 dereferenceable(1) %4)
  call void @llvm.lifetime.end.p0(i64 1, ptr %4) #16
  ret void
}

; Function Attrs: mustprogress uwtable
define linkonce_odr hidden { ptr, ptr } @_ZNK3ade11PassManagerINS_6passes11PassContextEE6stagesB5cxx11Ev(ptr noundef nonnull align 8 dereferenceable(80) %0) #0 comdat align 2 {
  %2 = alloca %"struct.ade::util::Range::IterRange", align 8
  %3 = alloca ptr, align 8
  store ptr %0, ptr %3, align 8, !tbaa !33
  %4 = load ptr, ptr %3, align 8
  %5 = getelementptr inbounds nuw %"class.ade::PassManager", ptr %4, i32 0, i32 0
  %6 = call { ptr, ptr } @_ZN3ade4util5Range7toRangeIRKNSt7__cxx114listISt4pairINS3_12basic_stringIcSt11char_traitsIcESaIcEEENS_8PassListINS_6passes11PassContextEEEESaISF_EEEEENS1_9IterRangeIDTclsr3stdE5beginfp_EEDTclsr3stdE3endfp_EEEEOT_(ptr noundef nonnull align 8 dereferenceable(24) %5)
  %7 = getelementptr inbounds nuw { ptr, ptr }, ptr %2, i32 0, i32 0
  %8 = extractvalue { ptr, ptr } %6, 0
  store ptr %8, ptr %7, align 8
  %9 = getelementptr inbounds nuw { ptr, ptr }, ptr %2, i32 0, i32 1
  %10 = extractvalue { ptr, ptr } %6, 1
  store ptr %10, ptr %9, align 8
  %11 = load { ptr, ptr }, ptr %2, align 8
  ret { ptr, ptr } %11
}

; Function Attrs: mustprogress uwtable
define hidden void @_ZNK3ade15ExecutionEngine10passStagesB5cxx11Ev(ptr dead_on_unwind noalias writable sret(%"struct.ade::util::Range::MapRange") align 8 %0, ptr noundef nonnull align 8 dereferenceable(272) %1) #0 align 2 {
  %3 = alloca ptr, align 8
  %4 = alloca %"struct.ade::util::Range::IterRange", align 8
  store ptr %1, ptr %3, align 8, !tbaa !11
  %5 = load ptr, ptr %3, align 8
  call void @llvm.lifetime.start.p0(i64 16, ptr %4) #16
  %6 = getelementptr inbounds nuw %"class.ade::ExecutionEngine", ptr %5, i32 0, i32 5
  %7 = call { ptr, ptr } @_ZNK3ade11PassManagerINS_6passes11PassContextEE6stagesB5cxx11Ev(ptr noundef nonnull align 8 dereferenceable(80) %6)
  %8 = getelementptr inbounds nuw { ptr, ptr }, ptr %4, i32 0, i32 0
  %9 = extractvalue { ptr, ptr } %7, 0
  store ptr %9, ptr %8, align 8
  %10 = getelementptr inbounds nuw { ptr, ptr }, ptr %4, i32 0, i32 1
  %11 = extractvalue { ptr, ptr } %7, 1
  store ptr %11, ptr %10, align 8
  call void @_ZN3ade4util5Range3mapINS_15ExecutionEngine10PassMapperENS1_9IterRangeISt20_List_const_iteratorISt4pairINSt7__cxx1112basic_stringIcSt11char_traitsIcESaIcEEENS_8PassListINS_6passes11PassContextEEEEESJ_EEEENS1_8MapRangeIT0_T_EEOSM_(ptr dead_on_unwind writable sret(%"struct.ade::util::Range::MapRange") align 8 %0, ptr noundef nonnull align 8 dereferenceable(16) %4)
  call void @llvm.lifetime.end.p0(i64 16, ptr %4) #16
  ret void
}

; Function Attrs: mustprogress uwtable
define hidden void @_ZNK3ade27ExecutionEngineSetupContext10passStagesB5cxx11Ev(ptr dead_on_unwind noalias writable sret(%"struct.ade::util::Range::MapRange") align 8 %0, ptr noundef nonnull align 8 dereferenceable(8) %1) #0 align 2 {
  %3 = alloca ptr, align 8
  store ptr %1, ptr %3, align 8, !tbaa !127
  %4 = load ptr, ptr %3, align 8
  %5 = getelementptr inbounds nuw %"class.ade::ExecutionEngineSetupContext", ptr %4, i32 0, i32 0
  %6 = load ptr, ptr %5, align 8, !tbaa !129
  call void @_ZNK3ade15ExecutionEngine10passStagesB5cxx11Ev(ptr dead_on_unwind writable sret(%"struct.ade::util::Range::MapRange") align 8 %0, ptr noundef nonnull align 8 dereferenceable(272) %6)
  ret void
}