; Function Attrs: mustprogress nofree norecurse nosync nounwind willreturn memory(read, argmem: readwrite, inaccessiblemem: readwrite) uwtable
define hidden void @_ZNK3ade27ExecutionEngineSetupContext10passStagesB5cxx11Ev(ptr dead_on_unwind noalias writable writeonly sret(%"struct.ade::util::Range::MapRange") align 8 captures(none) initializes((0, 16)) %0, ptr noundef nonnull readonly align 8 captures(none) dereferenceable(8) %1) local_unnamed_addr #9 align 2 {
  %3 = load ptr, ptr %1, align 8, !tbaa !165
  tail call void @llvm.experimental.noalias.scope.decl(metadata !167)
  %4 = getelementptr inbounds nuw i8, ptr %3, i64 192
  %5 = load ptr, ptr %4, align 8, !tbaa !25, !noalias !167
  store ptr %5, ptr %0, align 8, !tbaa !126, !alias.scope !167
  %.sroa.4.0..sroa_idx.i = getelementptr inbounds nuw i8, ptr %0, i64 8
  store ptr %4, ptr %.sroa.4.0..sroa_idx.i, align 8, !tbaa !126, !alias.scope !167
  ret void
}